target datalayout = "e-m:e-p270:32:32-p271:32:32-p272:64:64-i64:64-i128:128-f80:128-n8:16:32:64-S128"
target triple = "x86_64-unknown-linux-gnu"

%"class.arrow::io::OutputStream.base" = type { %"class.arrow::io::Writable" }
%"class.arrow::io::Writable" = type { ptr }
%"class.arrow::io::FileInterface.base" = type <{ ptr, %"class.std::enable_shared_from_this", i32 }>
%"class.std::enable_shared_from_this" = type { %"class.std::weak_ptr" }
%"class.std::weak_ptr" = type { %"class.std::__weak_ptr" }
%"class.std::__weak_ptr" = type { ptr, %"class.std::__weak_count" }
%"class.std::__weak_count" = type { ptr }
%"class.arrow::Status" = type { ptr }
%"union.std::aligned_storage<8, 8>::type" = type { [8 x i8] }
%"class.arrow::Result.22" = type { %"class.arrow::Status", %"class.arrow::internal::AlignedStorage.25" }
%"class.arrow::internal::AlignedStorage.25" = type { %"union.std::aligned_storage<8, 8>::type" }
%"class.arrow::io::MockOutputStream" = type <{ %"class.arrow::io::OutputStream.base", i64, i8, [7 x i8], %"class.arrow::io::FileInterface.base", [4 x i8] }>

; Function Attrs: mustprogress nounwind uwtable
define linkonce_odr void @_ZN5arrow8internal14AlignedStorageIlE9constructIJRKlEEEvDpOT_(ptr noundef nonnull align 8 dereferenceable(8) %this, ptr noundef nonnull align 8 dereferenceable(8) %args) #0 comdat align 2 {
entry:
  %this.addr = alloca ptr, align 8
  %args.addr = alloca ptr, align 8
  store ptr %this, ptr %this.addr, align 8
  store ptr %args, ptr %args.addr, align 8
  %this1 = load ptr, ptr %this.addr, align 8
  %data_ = getelementptr inbounds %"class.arrow::internal::AlignedStorage.25", ptr %this1, i32 0, i32 0
  %0 = load ptr, ptr %args.addr, align 8
  %1 = load i64, ptr %0, align 8
  store i64 %1, ptr %data_, align 8
  ret void
}

; Function Attrs: mustprogress nounwind uwtable
define linkonce_odr void @_ZN5arrow6ResultIlE14ConstructValueIRKlEEvOT_(ptr noundef nonnull align 8 dereferenceable(16) %this, ptr noundef nonnull align 8 dereferenceable(8) %u) #0 comdat align 2 {
entry:
  %this.addr = alloca ptr, align 8
  %u.addr = alloca ptr, align 8
  store ptr %this, ptr %this.addr, align 8
  store ptr %u, ptr %u.addr, align 8
  %this1 = load ptr, ptr %this.addr, align 8
  %storage_ = getelementptr inbounds %"class.arrow::Result.22", ptr %this1, i32 0, i32 1
  %0 = load ptr, ptr %u.addr, align 8
  call void @_ZN5arrow8internal14AlignedStorageIlE9constructIJRKlEEEvDpOT_(ptr noundef nonnull align 8 dereferenceable(8) %storage_, ptr noundef nonnull align 8 dereferenceable(8) %0) #13
  ret void
}

; Function Attrs: mustprogress nounwind uwtable
define linkonce_odr void @_ZN5arrow6StatusC2Ev(ptr noundef nonnull align 8 dereferenceable(8) %this) unnamed_addr #0 comdat align 2 {
entry:
  %this.addr = alloca ptr, align 8
  store ptr %this, ptr %this.addr, align 8
  %this1 = load ptr, ptr %this.addr, align 8
  %state_ = getelementptr inbounds %"class.arrow::Status", ptr %this1, i32 0, i32 0
  store ptr null, ptr %state_, align 8
  ret void
}

; Function Attrs: mustprogress nounwind uwtable
define linkonce_odr void @_ZN5arrow6ResultIlEC2IRKlvEEOT_(ptr noundef nonnull align 8 dereferenceable(16) %this, ptr noundef nonnull align 8 dereferenceable(8) %value) unnamed_addr #0 comdat align 2 {
entry:
  %this.addr = alloca ptr, align 8
  %value.addr = alloca ptr, align 8
  store ptr %this, ptr %this.addr, align 8
  store ptr %value, ptr %value.addr, align 8
  %this1 = load ptr, ptr %this.addr, align 8
  %status_ = getelementptr inbounds %"class.arrow::Result.22", ptr %this1, i32 0, i32 0
  call void @_ZN5arrow6StatusC2Ev(ptr noundef nonnull align 8 dereferenceable(8) %status_) #13
  %0 = load ptr, ptr %value.addr, align 8
  call void @_ZN5arrow6ResultIlE14ConstructValueIRKlEEvOT_(ptr noundef nonnull align 8 dereferenceable(16) %this1, ptr noundef nonnull align 8 dereferenceable(8) %0) #13
  ret void
}

; Function Attrs: mustprogress nounwind uwtable
define void @_ZNK5arrow2io16MockOutputStream4TellEv(ptr noalias sret(%"class.arrow::Result.22") align 8 %agg.result, ptr noundef nonnull align 8 dereferenceable(17) %this) unnamed_addr #0 align 2 {
entry:
  %result.ptr = alloca ptr, align 8
  %this.addr = alloca ptr, align 8
  store ptr %agg.result, ptr %result.ptr, align 8
  store ptr %this, ptr %this.addr, align 8
  %this1 = load ptr, ptr %this.addr, align 8
  %extent_bytes_written_ = getelementptr inbounds %"class.arrow::io::MockOutputStream", ptr %this1, i32 0, i32 1
  call void @_ZN5arrow6ResultIlEC2IRKlvEEOT_(ptr noundef nonnull align 8 dereferenceable(16) %agg.result, ptr noundef nonnull align 8 dereferenceable(8) %extent_bytes_written_) #13
  ret void
}

; Function Attrs: uwtable
define void @_ZTv0_n56_NK5arrow2io16MockOutputStream4TellEv(ptr noalias sret(%"class.arrow::Result.22") align 8 %agg.result, ptr noundef %this) unnamed_addr #8 align 2 {
entry:
  %result.ptr = alloca ptr, align 8
  %this.addr = alloca ptr, align 8
  store ptr %agg.result, ptr %result.ptr, align 8
  store ptr %this, ptr %this.addr, align 8
  %this1 = load ptr, ptr %this.addr, align 8
  %0 = load ptr, ptr %this1, align 8
  %1 = getelementptr inbounds i8, ptr %0, i64 -56
  %2 = load i64, ptr %1, align 8
  %3 = getelementptr inbounds i8, ptr %this1, i64 %2
  tail call void @_ZNK5arrow2io16MockOutputStream4TellEv(ptr sret(%"class.arrow::Result.22") align 8 %agg.result, ptr noundef nonnull align 8 dereferenceable(17) %3)
  ret void
}